;
; File generated by cc65 v 2.19 - Git 2c4d4d3
;
	.fopt		compiler,"cc65 v 2.19 - Git 2c4d4d3"
	.setcpu		"6502"
	.smart		on
	.autoimport	on
	.case		on
	.debuginfo	off
	.importzp	sp, sreg, regsave, regbank
	.importzp	tmp1, tmp2, tmp3, tmp4, ptr1, ptr2, ptr3, ptr4
	.macpack	longbranch
	.forceimport	__STARTUP__
	.import		_pal_bg
	.import		_pal_spr
	.import		_ppu_wait_nmi
	.import		_ppu_off
	.import		_ppu_on_all
	.import		_oam_clear
	.import		_oam_meta_spr
	.import		_pad_poll
	.import		_bank_spr
	.import		_set_vram_update
	.import		_memcpy
	.import		_set_vram_buffer
	.import		_get_pad_new
	.import		_set_scroll_y
	.import		_get_ppu_addr
	.import		_set_data_pointer
	.import		_set_mt_pointer
	.import		_buffer_4_mt
	.import		_flush_vram_update2
	.export		_metasprite_0_data
	.export		_metasprite_1_data
	.export		_metasprite_2_data
	.export		_metasprite_3_data
	.export		_metasprite_4_data
	.export		_metasprite_5_data
	.export		_metasprite_6_data
	.export		_metasprite_7_data
	.export		_metasprite_8_data
	.export		_metasprite_9_data
	.export		_metasprite_10_data
	.export		_metasprite_11_data
	.export		_metasprite_12_data
	.export		_metasprite_13_data
	.export		_metasprite_14_data
	.export		_metasprite_15_data
	.export		_metasprite_0_data2
	.export		_metasprite_1_data2
	.export		_metasprite_2_data2
	.export		_metasprite_3_data2
	.export		_metasprite_4_data2
	.export		_metasprite_5_data2
	.export		_metasprite_6_data2
	.export		_metasprite_7_data2
	.export		_metasprite_8_data2
	.export		_metasprite_9_data2
	.export		_metasprite_10_data2
	.export		_metasprite_11_data2
	.export		_metasprite_12_data2
	.export		_metasprite_13_data2
	.export		_fire
	.export		_fire1
	.export		_fire2
	.export		_fire3
	.export		_red_win_r
	.export		_red_win_e
	.export		_red_win_d
	.export		_red_win_o
	.export		_red_win_w
	.export		_red_win_i
	.export		_red_win_n
	.export		_blue_win_b
	.export		_blue_win_l
	.export		_blue_win_u
	.export		_blue_win_e
	.export		_blue_win_o
	.export		_blue_win_w
	.export		_blue_win_i
	.export		_blue_win_n
	.export		_chr_idle_left
	.export		_chr_idle_right
	.export		_chr_left
	.export		_chr_right
	.export		_chr_dance
	.export		_box
	.export		_bridge
	.export		_chr_idle_left2
	.export		_chr_idle_right2
	.export		_chr_left2
	.export		_chr_right2
	.export		_chr_dance2
	.export		_fire_anime
	.export		_red_win_anime
	.export		_blue_win_anime
	.export		_pad1
	.export		_pad1_new
	.export		_pad2
	.export		_pad2_new
	.export		_collision
	.export		_collision_L
	.export		_collision_R
	.export		_collision_U
	.export		_collision_D
	.export		_coordinates
	.export		_temp1
	.export		_temp2
	.export		_temp3
	.export		_temp4
	.export		_temp5
	.export		_temp6
	.export		_eject_L
	.export		_eject_R
	.export		_eject_D
	.export		_eject_U
	.export		_direction
	.export		_direction_idle
	.export		_direction_DANCE
	.export		_direction2
	.export		_direction_idle2
	.export		_direction_DANCE2
	.export		_address
	.export		_x
	.export		_y
	.export		_index
	.export		_map
	.export		_scroll_x
	.export		_scroll_y
	.export		_scroll_count
	.export		_pseudo_scroll_x
	.export		_hero_velocity_x
	.export		_hero_velocity_y
	.export		_L_R_switch
	.export		_old_x
	.export		_old_y
	.export		_temp_x
	.export		_temp_y
	.export		_c_map
	.export		_c_map2
	.export		_Generic
	.export		_BoxGuy1
	.export		_BoxGuy2
	.export		_palette_bg
	.export		_palette_sp
	.export		_metatiles
	.export		_is_solid
	.export		_Room1
	.export		_load_room
	.export		_draw_sprites
	.export		_movement
	.export		_movement2
	.export		_bg_collision_sub
	.export		_bg_coll_L
	.export		_bg_coll_R
	.export		_bg_coll_U
	.export		_bg_coll_D
	.export		_bg_coll_D2
	.export		_do_bg_coll_L
	.export		_do_bg_coll_R
	.export		_do_bg_coll_U
	.export		_do_bg_coll_D
	.export		_do_bg_coll_D2
	.export		_can_jump
	.export		_can_jump2
	.export		_frame_count
	.export		_frame_count2
	.export		_die1
	.export		_die2
	.export		_RED_WIN
	.export		_BLUE_WIN
	.export		_REDTXT
	.export		_BLUETXT
	.export		_ri
	.export		_bi
	.export		_main
	.export		_bg_collision_sub2

.segment	"DATA"

_BoxGuy1:
	.word	$1000
	.word	$D000
	.res	4,$00
_BoxGuy2:
	.word	$2000
	.word	$D000
	.res	4,$00
_can_jump:
	.byte	$01
_can_jump2:
	.byte	$01
_frame_count:
	.byte	$00
_frame_count2:
	.byte	$00
_die1:
	.byte	$00
_die2:
	.byte	$00
_RED_WIN:
	.byte	$00
_BLUE_WIN:
	.byte	$00
_ri:
	.byte	$00
_bi:
	.byte	$00

.segment	"RODATA"

_metasprite_0_data:
	.byte	$00
	.byte	$00
	.byte	$00
	.byte	$00
	.byte	$80
_metasprite_1_data:
	.byte	$00
	.byte	$00
	.byte	$01
	.byte	$00
	.byte	$80
_metasprite_2_data:
	.byte	$00
	.byte	$00
	.byte	$02
	.byte	$00
	.byte	$80
_metasprite_3_data:
	.byte	$00
	.byte	$00
	.byte	$03
	.byte	$00
	.byte	$80
_metasprite_4_data:
	.byte	$00
	.byte	$00
	.byte	$04
	.byte	$00
	.byte	$80
_metasprite_5_data:
	.byte	$00
	.byte	$00
	.byte	$01
	.byte	$40
	.byte	$80
_metasprite_6_data:
	.byte	$00
	.byte	$00
	.byte	$02
	.byte	$40
	.byte	$80
_metasprite_7_data:
	.byte	$00
	.byte	$00
	.byte	$03
	.byte	$40
	.byte	$80
_metasprite_8_data:
	.byte	$00
	.byte	$00
	.byte	$04
	.byte	$40
	.byte	$80
_metasprite_9_data:
	.byte	$00
	.byte	$00
	.byte	$00
	.byte	$00
	.byte	$80
_metasprite_10_data:
	.byte	$00
	.byte	$00
	.byte	$00
	.byte	$40
	.byte	$80
_metasprite_11_data:
	.byte	$00
	.byte	$00
	.byte	$08
	.byte	$00
	.byte	$80
_metasprite_12_data:
	.byte	$01
	.byte	$00
	.byte	$08
	.byte	$40
	.byte	$80
_metasprite_13_data:
	.byte	$00
	.byte	$00
	.byte	$00
	.byte	$40
	.byte	$80
_metasprite_14_data:
	.byte	$00
	.byte	$00
	.byte	$0B
	.byte	$02
	.byte	$80
_metasprite_15_data:
	.byte	$00
	.byte	$00
	.byte	$0C
	.byte	$02
	.byte	$80
_metasprite_0_data2:
	.byte	$00
	.byte	$00
	.byte	$00
	.byte	$01
	.byte	$80
_metasprite_1_data2:
	.byte	$00
	.byte	$00
	.byte	$01
	.byte	$01
	.byte	$80
_metasprite_2_data2:
	.byte	$00
	.byte	$00
	.byte	$02
	.byte	$01
	.byte	$80
_metasprite_3_data2:
	.byte	$00
	.byte	$00
	.byte	$03
	.byte	$01
	.byte	$80
_metasprite_4_data2:
	.byte	$00
	.byte	$00
	.byte	$04
	.byte	$01
	.byte	$80
_metasprite_5_data2:
	.byte	$00
	.byte	$00
	.byte	$01
	.byte	$41
	.byte	$80
_metasprite_6_data2:
	.byte	$00
	.byte	$00
	.byte	$02
	.byte	$41
	.byte	$80
_metasprite_7_data2:
	.byte	$00
	.byte	$00
	.byte	$03
	.byte	$41
	.byte	$80
_metasprite_8_data2:
	.byte	$00
	.byte	$00
	.byte	$04
	.byte	$41
	.byte	$80
_metasprite_9_data2:
	.byte	$00
	.byte	$00
	.byte	$00
	.byte	$01
	.byte	$80
_metasprite_10_data2:
	.byte	$00
	.byte	$00
	.byte	$00
	.byte	$41
	.byte	$80
_metasprite_11_data2:
	.byte	$00
	.byte	$00
	.byte	$08
	.byte	$01
	.byte	$80
_metasprite_12_data2:
	.byte	$01
	.byte	$00
	.byte	$08
	.byte	$41
	.byte	$80
_metasprite_13_data2:
	.byte	$00
	.byte	$00
	.byte	$00
	.byte	$41
	.byte	$80
_fire:
	.byte	$00
	.byte	$00
	.byte	$0C
	.byte	$03
	.byte	$80
_fire1:
	.byte	$00
	.byte	$00
	.byte	$0D
	.byte	$03
	.byte	$80
_fire2:
	.byte	$00
	.byte	$00
	.byte	$0E
	.byte	$03
	.byte	$80
_fire3:
	.byte	$00
	.byte	$00
	.byte	$0F
	.byte	$03
	.byte	$80
_red_win_r:
	.byte	$00
	.byte	$00
	.byte	$10
	.byte	$00
	.byte	$80
_red_win_e:
	.byte	$00
	.byte	$00
	.byte	$11
	.byte	$00
	.byte	$80
_red_win_d:
	.byte	$00
	.byte	$00
	.byte	$12
	.byte	$00
	.byte	$80
_red_win_o:
	.byte	$00
	.byte	$00
	.byte	$13
	.byte	$00
	.byte	$80
_red_win_w:
	.byte	$00
	.byte	$00
	.byte	$14
	.byte	$00
	.byte	$80
_red_win_i:
	.byte	$00
	.byte	$00
	.byte	$15
	.byte	$00
	.byte	$80
_red_win_n:
	.byte	$00
	.byte	$00
	.byte	$16
	.byte	$00
	.byte	$80
_blue_win_b:
	.byte	$00
	.byte	$00
	.byte	$18
	.byte	$01
	.byte	$80
_blue_win_l:
	.byte	$00
	.byte	$00
	.byte	$19
	.byte	$01
	.byte	$80
_blue_win_u:
	.byte	$00
	.byte	$00
	.byte	$1A
	.byte	$01
	.byte	$80
_blue_win_e:
	.byte	$00
	.byte	$00
	.byte	$1B
	.byte	$01
	.byte	$80
_blue_win_o:
	.byte	$00
	.byte	$00
	.byte	$1C
	.byte	$01
	.byte	$80
_blue_win_w:
	.byte	$00
	.byte	$00
	.byte	$1D
	.byte	$01
	.byte	$80
_blue_win_i:
	.byte	$00
	.byte	$00
	.byte	$1E
	.byte	$01
	.byte	$80
_blue_win_n:
	.byte	$00
	.byte	$00
	.byte	$1F
	.byte	$01
	.byte	$80
_chr_idle_left:
	.addr	_metasprite_13_data
_chr_idle_right:
	.addr	_metasprite_0_data
_chr_left:
	.addr	_metasprite_5_data
	.addr	_metasprite_6_data
	.addr	_metasprite_7_data
	.addr	_metasprite_8_data
_chr_right:
	.addr	_metasprite_1_data
	.addr	_metasprite_2_data
	.addr	_metasprite_3_data
	.addr	_metasprite_4_data
_chr_dance:
	.addr	_metasprite_9_data
	.addr	_metasprite_11_data
	.addr	_metasprite_12_data
	.addr	_metasprite_10_data
	.addr	_metasprite_12_data
	.addr	_metasprite_11_data
_box:
	.addr	_metasprite_14_data
_bridge:
	.addr	_metasprite_15_data
_chr_idle_left2:
	.addr	_metasprite_13_data2
_chr_idle_right2:
	.addr	_metasprite_0_data2
_chr_left2:
	.addr	_metasprite_5_data2
	.addr	_metasprite_6_data2
	.addr	_metasprite_7_data2
	.addr	_metasprite_8_data2
_chr_right2:
	.addr	_metasprite_1_data2
	.addr	_metasprite_2_data2
	.addr	_metasprite_3_data2
	.addr	_metasprite_4_data2
_chr_dance2:
	.addr	_metasprite_9_data2
	.addr	_metasprite_11_data2
	.addr	_metasprite_12_data2
	.addr	_metasprite_10_data2
	.addr	_metasprite_12_data2
	.addr	_metasprite_11_data2
_fire_anime:
	.addr	_fire
	.addr	_fire1
	.addr	_fire2
	.addr	_fire3
_red_win_anime:
	.addr	_red_win_r
	.addr	_red_win_e
	.addr	_red_win_d
	.addr	_red_win_o
	.addr	_red_win_w
	.addr	_red_win_i
	.addr	_red_win_n
_blue_win_anime:
	.addr	_blue_win_b
	.addr	_blue_win_l
	.addr	_blue_win_u
	.addr	_blue_win_e
	.addr	_blue_win_o
	.addr	_blue_win_w
	.addr	_blue_win_i
	.addr	_blue_win_n
_palette_bg:
	.byte	$0F
	.byte	$0C
	.byte	$1C
	.byte	$2A
	.byte	$0F
	.byte	$03
	.byte	$12
	.byte	$30
	.byte	$0F
	.byte	$17
	.byte	$27
	.byte	$05
	.byte	$0F
	.byte	$1C
	.byte	$2C
	.byte	$30
_palette_sp:
	.byte	$0F
	.byte	$24
	.byte	$10
	.byte	$30
	.byte	$0F
	.byte	$21
	.byte	$10
	.byte	$30
	.byte	$0F
	.byte	$17
	.byte	$27
	.byte	$05
	.byte	$0F
	.byte	$05
	.byte	$27
	.byte	$20
_metatiles:
	.byte	$0D
	.byte	$0E
	.byte	$1D
	.byte	$1E
	.byte	$01
	.byte	$0E
	.byte	$0F
	.byte	$1E
	.byte	$1F
	.byte	$01
	.byte	$0B
	.byte	$0E
	.byte	$1E
	.byte	$0B
	.byte	$01
	.byte	$0E
	.byte	$0B
	.byte	$0B
	.byte	$1E
	.byte	$01
	.byte	$00
	.byte	$01
	.byte	$10
	.byte	$11
	.byte	$00
	.byte	$00
	.byte	$01
	.byte	$14
	.byte	$15
	.byte	$00
	.byte	$04
	.byte	$01
	.byte	$10
	.byte	$15
	.byte	$00
	.byte	$04
	.byte	$01
	.byte	$14
	.byte	$11
	.byte	$00
	.byte	$00
	.byte	$01
	.byte	$02
	.byte	$03
	.byte	$00
	.byte	$02
	.byte	$03
	.byte	$12
	.byte	$13
	.byte	$00
	.byte	$02
	.byte	$05
	.byte	$12
	.byte	$13
	.byte	$00
	.byte	$12
	.byte	$13
	.byte	$02
	.byte	$05
	.byte	$00
	.byte	$02
	.byte	$03
	.byte	$10
	.byte	$11
	.byte	$00
	.byte	$12
	.byte	$03
	.byte	$14
	.byte	$15
	.byte	$00
	.byte	$08
	.byte	$08
	.byte	$18
	.byte	$18
	.byte	$03
	.byte	$16
	.byte	$17
	.byte	$16
	.byte	$17
	.byte	$03
	.byte	$06
	.byte	$06
	.byte	$06
	.byte	$06
	.byte	$02
	.byte	$07
	.byte	$07
	.byte	$A1
	.byte	$A1
	.byte	$02
	.byte	$06
	.byte	$06
	.byte	$06
	.byte	$1A
	.byte	$02
	.byte	$06
	.byte	$06
	.byte	$1A
	.byte	$06
	.byte	$02
	.byte	$06
	.byte	$1A
	.byte	$06
	.byte	$06
	.byte	$02
	.byte	$1A
	.byte	$06
	.byte	$06
	.byte	$06
	.byte	$02
	.byte	$06
	.byte	$1A
	.byte	$1A
	.byte	$06
	.byte	$02
	.byte	$19
	.byte	$06
	.byte	$06
	.byte	$1A
	.byte	$02
	.byte	$06
	.byte	$1A
	.byte	$1A
	.byte	$1A
	.byte	$02
	.byte	$A1
	.byte	$06
	.byte	$19
	.byte	$19
	.byte	$02
	.byte	$09
	.byte	$19
	.byte	$06
	.byte	$19
	.byte	$02
	.byte	$19
	.byte	$19
	.byte	$19
	.byte	$06
	.byte	$02
	.byte	$A1
	.byte	$A1
	.byte	$A1
	.byte	$A1
	.byte	$00
	.byte	$A1
	.byte	$A1
	.byte	$A1
	.byte	$A1
	.byte	$00
	.byte	$A1
	.byte	$A1
	.byte	$A1
	.byte	$A1
	.byte	$00
	.byte	$A1
	.byte	$A1
	.byte	$A1
	.byte	$A1
	.byte	$00
	.byte	$A1
	.byte	$A1
	.byte	$A1
	.byte	$A1
	.byte	$00
	.byte	$A1
	.byte	$A1
	.byte	$A1
	.byte	$A1
	.byte	$00
	.byte	$A1
	.byte	$1A
	.byte	$A1
	.byte	$A1
	.byte	$02
	.byte	$1A
	.byte	$1A
	.byte	$A1
	.byte	$A1
	.byte	$02
	.byte	$1A
	.byte	$1A
	.byte	$A1
	.byte	$A1
	.byte	$02
	.byte	$1A
	.byte	$1A
	.byte	$A1
	.byte	$A1
	.byte	$02
	.byte	$1A
	.byte	$1A
	.byte	$A1
	.byte	$A1
	.byte	$02
	.byte	$1A
	.byte	$1A
	.byte	$A1
	.byte	$A1
	.byte	$02
	.byte	$1A
	.byte	$1A
	.byte	$A1
	.byte	$A1
	.byte	$02
	.byte	$A1
	.byte	$A1
	.byte	$A1
	.byte	$A1
	.byte	$00
	.byte	$A1
	.byte	$A1
	.byte	$A1
	.byte	$A1
	.byte	$00
	.byte	$A1
	.byte	$A1
	.byte	$A1
	.byte	$A1
	.byte	$00
	.byte	$A1
	.byte	$A1
	.byte	$A1
	.byte	$A1
	.byte	$00
	.byte	$A1
	.byte	$A1
	.byte	$A1
	.byte	$A1
	.byte	$00
	.byte	$A1
	.byte	$A1
	.byte	$A1
	.byte	$A1
	.byte	$00
	.byte	$A1
	.byte	$A1
	.byte	$A1
	.byte	$A1
	.byte	$00
	.byte	$A1
	.byte	$A1
	.byte	$A1
	.byte	$A1
	.byte	$00
	.byte	$A1
	.byte	$A1
	.byte	$A1
	.byte	$A1
	.byte	$00
	.byte	$A1
	.byte	$A1
	.byte	$A1
	.byte	$A1
	.byte	$00
	.byte	$A1
	.byte	$A1
	.byte	$A1
	.byte	$A1
	.byte	$00
	.byte	$A1
	.byte	$A1
	.byte	$A1
	.byte	$A1
	.byte	$00
	.byte	$A1
	.byte	$A1
	.byte	$A1
	.byte	$A1
	.byte	$00
	.byte	$A1
	.byte	$A1
	.byte	$A1
	.byte	$A1
	.byte	$00
	.byte	$A1
	.byte	$A1
	.byte	$A1
	.byte	$A1
	.byte	$00
	.byte	$A1
	.byte	$A1
	.byte	$A1
	.byte	$A1
	.byte	$00
	.byte	$A1
	.byte	$A1
	.byte	$A1
	.byte	$A1
	.byte	$00
	.byte	$A1
	.byte	$A1
	.byte	$A1
	.byte	$A1
	.byte	$00
	.byte	$A1
	.byte	$A1
	.byte	$A1
	.byte	$A1
	.byte	$00
	.byte	$A1
	.byte	$A1
	.byte	$A1
	.byte	$A1
	.byte	$00
	.byte	$A1
	.byte	$A1
	.byte	$A1
	.byte	$A1
	.byte	$00
	.byte	$A1
	.byte	$A1
	.byte	$A1
	.byte	$A1
	.byte	$00
	.byte	$A1
	.byte	$A1
	.byte	$A1
	.byte	$A1
	.byte	$00
_is_solid:
	.byte	$00
	.byte	$00
	.byte	$00
	.byte	$00
	.byte	$C0
	.byte	$C0
	.byte	$C0
	.byte	$C0
	.byte	$C0
	.byte	$C0
	.byte	$C0
	.byte	$C0
	.byte	$C0
	.byte	$C0
	.byte	$C0
	.byte	$C0
_Room1:
	.byte	$08
	.byte	$06
	.byte	$07
	.byte	$07
	.byte	$07
	.byte	$07
	.byte	$07
	.byte	$06
	.byte	$06
	.byte	$07
	.byte	$06
	.byte	$06
	.byte	$06
	.byte	$06
	.byte	$07
	.byte	$08
	.byte	$0A
	.byte	$02
	.byte	$01
	.byte	$02
	.byte	$01
	.byte	$02
	.byte	$01
	.byte	$00
	.byte	$02
	.byte	$00
	.byte	$03
	.byte	$00
	.byte	$01
	.byte	$02
	.byte	$01
	.byte	$0A
	.byte	$0C
	.byte	$11
	.byte	$01
	.byte	$02
	.byte	$02
	.byte	$00
	.byte	$02
	.byte	$0F
	.byte	$00
	.byte	$00
	.byte	$00
	.byte	$00
	.byte	$03
	.byte	$03
	.byte	$12
	.byte	$0C
	.byte	$08
	.byte	$01
	.byte	$02
	.byte	$02
	.byte	$07
	.byte	$11
	.byte	$06
	.byte	$07
	.byte	$06
	.byte	$07
	.byte	$07
	.byte	$07
	.byte	$11
	.byte	$11
	.byte	$11
	.byte	$08
	.byte	$0B
	.byte	$11
	.byte	$02
	.byte	$05
	.byte	$02
	.byte	$02
	.byte	$04
	.byte	$00
	.byte	$04
	.byte	$00
	.byte	$04
	.byte	$00
	.byte	$01
	.byte	$02
	.byte	$01
	.byte	$0B
	.byte	$0A
	.byte	$03
	.byte	$01
	.byte	$02
	.byte	$02
	.byte	$00
	.byte	$02
	.byte	$02
	.byte	$01
	.byte	$02
	.byte	$03
	.byte	$03
	.byte	$01
	.byte	$00
	.byte	$02
	.byte	$0C
	.byte	$0C
	.byte	$02
	.byte	$05
	.byte	$05
	.byte	$02
	.byte	$06
	.byte	$02
	.byte	$06
	.byte	$02
	.byte	$05
	.byte	$05
	.byte	$04
	.byte	$00
	.byte	$03
	.byte	$00
	.byte	$0F
	.byte	$08
	.byte	$01
	.byte	$0F
	.byte	$00
	.byte	$03
	.byte	$02
	.byte	$03
	.byte	$02
	.byte	$01
	.byte	$03
	.byte	$03
	.byte	$01
	.byte	$05
	.byte	$02
	.byte	$11
	.byte	$08
	.byte	$0B
	.byte	$02
	.byte	$0F
	.byte	$02
	.byte	$00
	.byte	$03
	.byte	$03
	.byte	$02
	.byte	$03
	.byte	$00
	.byte	$03
	.byte	$00
	.byte	$01
	.byte	$00
	.byte	$01
	.byte	$0B
	.byte	$09
	.byte	$01
	.byte	$03
	.byte	$02
	.byte	$11
	.byte	$11
	.byte	$05
	.byte	$0E
	.byte	$0E
	.byte	$05
	.byte	$11
	.byte	$11
	.byte	$11
	.byte	$06
	.byte	$01
	.byte	$0B
	.byte	$0C
	.byte	$02
	.byte	$02
	.byte	$00
	.byte	$01
	.byte	$03
	.byte	$00
	.byte	$03
	.byte	$01
	.byte	$00
	.byte	$03
	.byte	$01
	.byte	$03
	.byte	$02
	.byte	$03
	.byte	$0C
	.byte	$08
	.byte	$0E
	.byte	$05
	.byte	$05
	.byte	$11
	.byte	$11
	.byte	$04
	.byte	$07
	.byte	$11
	.byte	$05
	.byte	$11
	.byte	$04
	.byte	$11
	.byte	$00
	.byte	$03
	.byte	$08
	.byte	$0B
	.byte	$00
	.byte	$03
	.byte	$00
	.byte	$03
	.byte	$02
	.byte	$03
	.byte	$00
	.byte	$03
	.byte	$01
	.byte	$02
	.byte	$03
	.byte	$01
	.byte	$02
	.byte	$04
	.byte	$0A
	.byte	$0A
	.byte	$00
	.byte	$02
	.byte	$10
	.byte	$00
	.byte	$02
	.byte	$03
	.byte	$10
	.byte	$00
	.byte	$02
	.byte	$02
	.byte	$02
	.byte	$01
	.byte	$10
	.byte	$04
	.byte	$09
	.byte	$0C
	.byte	$06
	.byte	$06
	.byte	$07
	.byte	$06
	.byte	$07
	.byte	$06
	.byte	$06
	.byte	$07
	.byte	$06
	.byte	$06
	.byte	$06
	.byte	$06
	.byte	$06
	.byte	$06
	.byte	$0C
_REDTXT:
	.byte	$52,$45,$44,$20,$57,$49,$4E,$21,$21,$00
_BLUETXT:
	.byte	$42,$4C,$55,$45,$20,$57,$49,$4E,$21,$21,$00

.segment	"BSS"

.segment	"ZEROPAGE"
_pad1:
	.res	1,$00
_pad1_new:
	.res	1,$00
_pad2:
	.res	1,$00
_pad2_new:
	.res	1,$00
_collision:
	.res	1,$00
_collision_L:
	.res	1,$00
_collision_R:
	.res	1,$00
_collision_U:
	.res	1,$00
_collision_D:
	.res	1,$00
_coordinates:
	.res	1,$00
_temp1:
	.res	1,$00
_temp2:
	.res	1,$00
_temp3:
	.res	1,$00
_temp4:
	.res	1,$00
_temp5:
	.res	2,$00
_temp6:
	.res	2,$00
_eject_L:
	.res	1,$00
_eject_R:
	.res	1,$00
_eject_D:
	.res	1,$00
_eject_U:
	.res	1,$00
_direction:
	.res	1,$00
_direction_idle:
	.res	1,$00
_direction_DANCE:
	.res	1,$00
_direction2:
	.res	1,$00
_direction_idle2:
	.res	1,$00
_direction_DANCE2:
	.res	1,$00
_address:
	.res	2,$00
_x:
	.res	1,$00
_y:
	.res	1,$00
_index:
	.res	1,$00
_map:
	.res	1,$00
_scroll_x:
	.res	2,$00
_scroll_y:
	.res	2,$00
_scroll_count:
	.res	1,$00
_pseudo_scroll_x:
	.res	2,$00
_hero_velocity_x:
	.res	2,$00
_hero_velocity_y:
	.res	2,$00
_L_R_switch:
	.res	1,$00
_old_x:
	.res	2,$00
_old_y:
	.res	2,$00
_temp_x:
	.res	1,$00
_temp_y:
	.res	1,$00
.segment	"BSS"
_c_map:
	.res	240,$00
_c_map2:
	.res	240,$00
_Generic:
	.res	4,$00

; ---------------------------------------------------------------
; void __near__ load_room (void)
; ---------------------------------------------------------------

.segment	"CODE"

.proc	_load_room: near

.segment	"CODE"

;
; set_data_pointer(Room1);
;
	lda     #<(_Room1)
	ldx     #>(_Room1)
	jsr     _set_data_pointer
;
; set_mt_pointer(metatiles);
;
	lda     #<(_metatiles)
	ldx     #>(_metatiles)
	jsr     _set_mt_pointer
;
; for(y=0; ;y+=0x20){
;
	lda     #$00
L000F:	sta     _y
;
; for(x=0; ;x+=0x20){
;
	lda     #$00
L000E:	sta     _x
;
; address = get_ppu_addr(0, x, y);
;
	jsr     decsp2
	lda     #$00
	ldy     #$01
	sta     (sp),y
	lda     _x
	dey
	sta     (sp),y
	lda     _y
	jsr     _get_ppu_addr
	sta     _address
	stx     _address+1
;
; index = (y & 0xf0) + (x >> 4);
;
	lda     _y
	and     #$F0
	sta     ptr1
	lda     _x
	lsr     a
	lsr     a
	lsr     a
	lsr     a
	clc
	adc     ptr1
	sta     _index
;
; buffer_4_mt(address, index); // ppu_address, index to the data
;
	lda     _address
	ldx     _address+1
	jsr     pushax
	lda     _index
	jsr     _buffer_4_mt
;
; flush_vram_update2();
;
	jsr     _flush_vram_update2
;
; if (x == 0xe0) break;
;
	ldx     #$00
	lda     _x
	cmp     #$E0
	beq     L0010
;
; for(x=0; ;x+=0x20){
;
	lda     #$20
	clc
	adc     _x
	jmp     L000E
;
; if (y == 0xe0) break;
;
L0010:	lda     _y
	cmp     #$E0
	beq     L0011
;
; for(y=0; ;y+=0x20){
;
	lda     #$20
	clc
	adc     _y
	jmp     L000F
;
; set_vram_update(NULL); // just turn ppu updates OFF for this example
;
L0011:	txa
	jsr     _set_vram_update
;
; memcpy (c_map, Room1, 240);
;
	ldy     #$00
L000C:	lda     _Room1,y
	sta     _c_map,y
	iny
	cpy     #$F0
	bne     L000C
;
; }
;
	rts

.endproc

; ---------------------------------------------------------------
; void __near__ draw_sprites (void)
; ---------------------------------------------------------------

.segment	"CODE"

.proc	_draw_sprites: near

.segment	"CODE"

;
; oam_clear();
;
	jsr     _oam_clear
;
; temp_x = BoxGuy1.x >> 8;
;
	lda     _BoxGuy1+1
	sta     _temp_x
;
; temp_y = BoxGuy1.y >> 8;
;
	lda     _BoxGuy1+3
	sta     _temp_y
;
; if(temp_x == 0) temp_x = 1;
;
	lda     _temp_x
	bne     L001C
	lda     #$01
	sta     _temp_x
;
; if(temp_y == 0) temp_y = 1;
;
L001C:	lda     _temp_y
	bne     L001D
	lda     #$01
	sta     _temp_y
;
; if (direction_DANCE == DANCE){
;
L001D:	lda     _direction_DANCE
	cmp     #$03
	bne     L001E
;
; oam_meta_spr(temp_x, temp_y, chr_dance[frame_count2/6]);
;
	jsr     decsp2
	lda     _temp_x
	ldy     #$01
	sta     (sp),y
	lda     _temp_y
	dey
	sta     (sp),y
	lda     _frame_count2
	jsr     pusha0
	lda     #$06
	jsr     tosudiva0
	stx     tmp1
	asl     a
	rol     tmp1
	clc
	adc     #<(_chr_dance)
	sta     ptr1
	lda     tmp1
	adc     #>(_chr_dance)
;
; }else{
;
	jmp     L0031
;
; if(direction_idle == IDLE){
;
L001E:	lda     _direction_idle
	cmp     #$02
	bne     L0020
;
; if(direction == LEFT){
;
	lda     _direction
	bne     L001F
;
; oam_meta_spr(temp_x, temp_y, chr_idle_left[0]);
;
	jsr     decsp2
	lda     _temp_x
	ldy     #$01
	sta     (sp),y
	lda     _temp_y
	dey
	sta     (sp),y
	lda     _chr_idle_left
	ldx     _chr_idle_left+1
;
; }else if(direction == RIGHT){
;
	jmp     L001A
L001F:	lda     _direction
	cmp     #$01
	jne     L0021
;
; oam_meta_spr(temp_x, temp_y, chr_idle_right[0]);
;
	jsr     decsp2
	lda     _temp_x
	ldy     #$01
	sta     (sp),y
	lda     _temp_y
	dey
	sta     (sp),y
	lda     _chr_idle_right
	ldx     _chr_idle_right+1
;
; }else if(direction == LEFT) {
;
	jmp     L001A
L0020:	lda     _direction
	bne     L000B
;
; oam_meta_spr(temp_x, temp_y, chr_left[frame_count/6]);
;
	jsr     decsp2
	lda     _temp_x
	ldy     #$01
	sta     (sp),y
	lda     _temp_y
	dey
	sta     (sp),y
	lda     _frame_count
	jsr     pusha0
	lda     #$06
	jsr     tosudiva0
	stx     tmp1
	asl     a
	rol     tmp1
	clc
	adc     #<(_chr_left)
	sta     ptr1
	lda     tmp1
	adc     #>(_chr_left)
;
; else{
;
	jmp     L0031
;
; oam_meta_spr(temp_x, temp_y, chr_right[frame_count/6]);
;
L000B:	jsr     decsp2
	lda     _temp_x
	ldy     #$01
	sta     (sp),y
	lda     _temp_y
	dey
	sta     (sp),y
	lda     _frame_count
	jsr     pusha0
	lda     #$06
	jsr     tosudiva0
	stx     tmp1
	asl     a
	rol     tmp1
	clc
	adc     #<(_chr_right)
	sta     ptr1
	lda     tmp1
	adc     #>(_chr_right)
L0031:	sta     ptr1+1
	ldy     #$01
	lda     (ptr1),y
	tax
	dey
	lda     (ptr1),y
L001A:	jsr     _oam_meta_spr
;
; temp_x = BoxGuy2.x >> 8;
;
L0021:	lda     _BoxGuy2+1
	sta     _temp_x
;
; temp_y = BoxGuy2.y >> 8;
;
	lda     _BoxGuy2+3
	sta     _temp_y
;
; if(temp_x == 0) temp_x = 1;
;
	lda     _temp_x
	bne     L0022
	lda     #$01
	sta     _temp_x
;
; if(temp_y == 0) temp_y = 1;
;
L0022:	lda     _temp_y
	bne     L0023
	lda     #$01
	sta     _temp_y
;
; if (direction_DANCE2 == DANCE){
;
L0023:	lda     _direction_DANCE2
	cmp     #$03
	bne     L0024
;
; oam_meta_spr(temp_x, temp_y, chr_dance2[frame_count2/6]);
;
	jsr     decsp2
	lda     _temp_x
	ldy     #$01
	sta     (sp),y
	lda     _temp_y
	dey
	sta     (sp),y
	lda     _frame_count2
	jsr     pusha0
	lda     #$06
	jsr     tosudiva0
	stx     tmp1
	asl     a
	rol     tmp1
	clc
	adc     #<(_chr_dance2)
	sta     ptr1
	lda     tmp1
	adc     #>(_chr_dance2)
;
; } else {
;
	jmp     L0032
;
; if(direction_idle2 == IDLE){
;
L0024:	lda     _direction_idle2
	cmp     #$02
	bne     L0026
;
; if(direction2 == LEFT){
;
	lda     _direction2
	bne     L0025
;
; oam_meta_spr(temp_x, temp_y, chr_idle_left2[0]);
;
	jsr     decsp2
	lda     _temp_x
	ldy     #$01
	sta     (sp),y
	lda     _temp_y
	dey
	sta     (sp),y
	lda     _chr_idle_left2
	ldx     _chr_idle_left2+1
;
; } else if(direction2 == RIGHT){
;
	jmp     L001B
L0025:	lda     _direction2
	cmp     #$01
	jne     L0017
;
; oam_meta_spr(temp_x, temp_y, chr_idle_right2[0]);
;
	jsr     decsp2
	lda     _temp_x
	ldy     #$01
	sta     (sp),y
	lda     _temp_y
	dey
	sta     (sp),y
	lda     _chr_idle_right2
	ldx     _chr_idle_right2+1
;
; } else if(direction2 == LEFT) {
;
	jmp     L001B
L0026:	lda     _direction2
	bne     L0016
;
; oam_meta_spr(temp_x, temp_y, chr_left2[frame_count/6]);
;
	jsr     decsp2
	lda     _temp_x
	ldy     #$01
	sta     (sp),y
	lda     _temp_y
	dey
	sta     (sp),y
	lda     _frame_count
	jsr     pusha0
	lda     #$06
	jsr     tosudiva0
	stx     tmp1
	asl     a
	rol     tmp1
	clc
	adc     #<(_chr_left2)
	sta     ptr1
	lda     tmp1
	adc     #>(_chr_left2)
;
; } else {
;
	jmp     L0032
;
; oam_meta_spr(temp_x, temp_y, chr_right2[frame_count/6]);
;
L0016:	jsr     decsp2
	lda     _temp_x
	ldy     #$01
	sta     (sp),y
	lda     _temp_y
	dey
	sta     (sp),y
	lda     _frame_count
	jsr     pusha0
	lda     #$06
	jsr     tosudiva0
	stx     tmp1
	asl     a
	rol     tmp1
	clc
	adc     #<(_chr_right2)
	sta     ptr1
	lda     tmp1
	adc     #>(_chr_right2)
L0032:	sta     ptr1+1
	ldy     #$01
	lda     (ptr1),y
	tax
	dey
	lda     (ptr1),y
L001B:	jsr     _oam_meta_spr
;
; oam_meta_spr(232, 40, fire_anime[frame_count/6]);
;
L0017:	jsr     decsp2
	lda     #$E8
	ldy     #$01
	sta     (sp),y
	lda     #$28
	dey
	sta     (sp),y
	lda     _frame_count
	jsr     pusha0
	lda     #$06
	jsr     tosudiva0
	stx     tmp1
	asl     a
	rol     tmp1
	clc
	adc     #<(_fire_anime)
	sta     ptr1
	lda     tmp1
	adc     #>(_fire_anime)
	sta     ptr1+1
	ldy     #$01
	lda     (ptr1),y
	tax
	dey
	lda     (ptr1),y
	jsr     _oam_meta_spr
;
; if(RED_WIN){
;
	lda     _RED_WIN
	jeq     L0018
;
; oam_meta_spr(60, 120, red_win_anime[0]);
;
	jsr     decsp2
	lda     #$3C
	ldy     #$01
	sta     (sp),y
	lda     #$78
	dey
	sta     (sp),y
	lda     _red_win_anime
	ldx     _red_win_anime+1
	jsr     _oam_meta_spr
;
; oam_meta_spr(80, 120, red_win_anime[1]);
;
	jsr     decsp2
	lda     #$50
	ldy     #$01
	sta     (sp),y
	lda     #$78
	dey
	sta     (sp),y
	lda     _red_win_anime+2
	ldx     _red_win_anime+2+1
	jsr     _oam_meta_spr
;
; oam_meta_spr(100, 120, red_win_anime[2]);
;
	jsr     decsp2
	lda     #$64
	ldy     #$01
	sta     (sp),y
	lda     #$78
	dey
	sta     (sp),y
	lda     _red_win_anime+4
	ldx     _red_win_anime+4+1
	jsr     _oam_meta_spr
;
; oam_meta_spr(120, 120, red_win_anime[3]);
;
	jsr     decsp2
	lda     #$78
	ldy     #$01
	sta     (sp),y
	dey
	sta     (sp),y
	lda     _red_win_anime+6
	ldx     _red_win_anime+6+1
	jsr     _oam_meta_spr
;
; oam_meta_spr(140, 120, red_win_anime[4]);
;
	jsr     decsp2
	lda     #$8C
	ldy     #$01
	sta     (sp),y
	lda     #$78
	dey
	sta     (sp),y
	lda     _red_win_anime+8
	ldx     _red_win_anime+8+1
	jsr     _oam_meta_spr
;
; oam_meta_spr(160, 120, red_win_anime[5]);
;
	jsr     decsp2
	lda     #$A0
	ldy     #$01
	sta     (sp),y
	lda     #$78
	dey
	sta     (sp),y
	lda     _red_win_anime+10
	ldx     _red_win_anime+10+1
	jsr     _oam_meta_spr
;
; oam_meta_spr(180, 120, red_win_anime[6]);
;
	jsr     decsp2
	lda     #$B4
	ldy     #$01
	sta     (sp),y
	lda     #$78
	dey
	sta     (sp),y
	lda     _red_win_anime+12
	ldx     _red_win_anime+12+1
	jsr     _oam_meta_spr
;
; if(BLUE_WIN){
;
L0018:	lda     _BLUE_WIN
	bne     L0033
;
; }
;
	rts
;
; oam_meta_spr(60, 120, blue_win_anime[0]);
;
L0033:	jsr     decsp2
	lda     #$3C
	ldy     #$01
	sta     (sp),y
	lda     #$78
	dey
	sta     (sp),y
	lda     _blue_win_anime
	ldx     _blue_win_anime+1
	jsr     _oam_meta_spr
;
; oam_meta_spr(80, 120, blue_win_anime[1]);
;
	jsr     decsp2
	lda     #$50
	ldy     #$01
	sta     (sp),y
	lda     #$78
	dey
	sta     (sp),y
	lda     _blue_win_anime+2
	ldx     _blue_win_anime+2+1
	jsr     _oam_meta_spr
;
; oam_meta_spr(100, 120, blue_win_anime[2]);
;
	jsr     decsp2
	lda     #$64
	ldy     #$01
	sta     (sp),y
	lda     #$78
	dey
	sta     (sp),y
	lda     _blue_win_anime+4
	ldx     _blue_win_anime+4+1
	jsr     _oam_meta_spr
;
; oam_meta_spr(120, 120, blue_win_anime[3]);
;
	jsr     decsp2
	lda     #$78
	ldy     #$01
	sta     (sp),y
	dey
	sta     (sp),y
	lda     _blue_win_anime+6
	ldx     _blue_win_anime+6+1
	jsr     _oam_meta_spr
;
; oam_meta_spr(140, 120, blue_win_anime[4]);
;
	jsr     decsp2
	lda     #$8C
	ldy     #$01
	sta     (sp),y
	lda     #$78
	dey
	sta     (sp),y
	lda     _blue_win_anime+8
	ldx     _blue_win_anime+8+1
	jsr     _oam_meta_spr
;
; oam_meta_spr(160, 120, blue_win_anime[5]);
;
	jsr     decsp2
	lda     #$A0
	ldy     #$01
	sta     (sp),y
	lda     #$78
	dey
	sta     (sp),y
	lda     _blue_win_anime+10
	ldx     _blue_win_anime+10+1
	jsr     _oam_meta_spr
;
; oam_meta_spr(180, 120, blue_win_anime[6]);
;
	jsr     decsp2
	lda     #$B4
	ldy     #$01
	sta     (sp),y
	lda     #$78
	dey
	sta     (sp),y
	lda     _blue_win_anime+12
	ldx     _blue_win_anime+12+1
	jsr     _oam_meta_spr
;
; oam_meta_spr(200, 120, blue_win_anime[7]);
;
	jsr     decsp2
	lda     #$C8
	ldy     #$01
	sta     (sp),y
	lda     #$78
	dey
	sta     (sp),y
	lda     _blue_win_anime+14
	ldx     _blue_win_anime+14+1
	jmp     _oam_meta_spr

.endproc

; ---------------------------------------------------------------
; void __near__ movement (void)
; ---------------------------------------------------------------

.segment	"CODE"

.proc	_movement: near

.segment	"CODE"

;
; old_x = BoxGuy1.x;
;
	lda     _BoxGuy1+1
	sta     _old_x+1
	lda     _BoxGuy1
	sta     _old_x
;
; if(pad1 & PAD_LEFT){
;
	lda     _pad1
	and     #$02
	beq     L0046
;
; direction = LEFT;
;
	lda     #$00
	sta     _direction
;
; direction_idle = LEFT;
;
	sta     _direction_idle
;
; direction_DANCE = LEFT;
;
	sta     _direction_DANCE
;
; if(BoxGuy1.vel_x >= DECEL){
;
	lda     _BoxGuy1+4
	cmp     #$64
	lda     _BoxGuy1+4+1
	sbc     #$00
	bvs     L0004
	eor     #$80
L0004:	bpl     L0003
;
; BoxGuy1.vel_x -= DECEL;
;
	lda     _BoxGuy1+4
	sec
	sbc     #$64
	sta     _BoxGuy1+4
	jcs     L0020
	dec     _BoxGuy1+4+1
;
; else if(BoxGuy1.vel_x > 0){
;
	jmp     L0020
L0003:	lda     _BoxGuy1+4
	cmp     #$01
	lda     _BoxGuy1+4+1
	sbc     #$00
	bvs     L0008
	eor     #$80
L0008:	bpl     L0007
;
; BoxGuy1.vel_x = 0;
;
	ldx     #$00
	txa
;
; else {
;
	jmp     L0049
;
; BoxGuy1.vel_x -= ACCEL;
;
L0007:	lda     _BoxGuy1+4
	sec
	sbc     #$1E
	sta     _BoxGuy1+4
	bcs     L000A
	dec     _BoxGuy1+4+1
;
; if(BoxGuy1.vel_x < -MAX_SPEED) BoxGuy1.vel_x = -MAX_SPEED;
;
L000A:	lda     _BoxGuy1+4
	cmp     #$70
	lda     _BoxGuy1+4+1
	sbc     #$FE
	bvc     L000C
	eor     #$80
L000C:	jpl     L0020
	ldx     #$FE
	lda     #$70
;
; else if (pad1 & PAD_RIGHT){
;
	jmp     L0049
L0046:	lda     _pad1
	and     #$01
	beq     L0047
;
; direction = RIGHT;
;
	lda     #$01
	sta     _direction
;
; direction_idle = RIGHT;
;
	sta     _direction_idle
;
; direction_DANCE = RIGHT;
;
	sta     _direction_DANCE
;
; if(BoxGuy1.vel_x <= DECEL){
;
	lda     _BoxGuy1+4
	cmp     #$65
	lda     _BoxGuy1+4+1
	sbc     #$00
	bvc     L0010
	eor     #$80
L0010:	bpl     L000F
;
; BoxGuy1.vel_x += DECEL;
;
	lda     #$64
	clc
	adc     _BoxGuy1+4
	sta     _BoxGuy1+4
	jcc     L0020
	inc     _BoxGuy1+4+1
;
; else if(BoxGuy1.vel_x < 0){
;
	jmp     L0020
L000F:	ldx     _BoxGuy1+4+1
	cpx     #$80
	bcc     L0013
;
; BoxGuy1.vel_x = 0;
;
	ldx     #$00
	txa
;
; else {
;
	jmp     L0049
;
; BoxGuy1.vel_x += ACCEL;
;
L0013:	lda     #$1E
	clc
	adc     _BoxGuy1+4
	sta     _BoxGuy1+4
	bcc     L0015
	inc     _BoxGuy1+4+1
;
; if(BoxGuy1.vel_x >= MAX_SPEED) BoxGuy1.vel_x = MAX_SPEED;
;
L0015:	lda     _BoxGuy1+4
	cmp     #$90
	lda     _BoxGuy1+4+1
	sbc     #$01
	bvs     L0017
	eor     #$80
L0017:	bpl     L0020
	ldx     #$01
	lda     #$90
;
; else { // nothing pressed
;
	jmp     L0049
;
; direction_idle = IDLE;
;
L0047:	lda     #$02
	sta     _direction_idle
;
; if(BoxGuy1.vel_x >= ACCEL) BoxGuy1.vel_x -= ACCEL;
;
	lda     _BoxGuy1+4
	cmp     #$1E
	lda     _BoxGuy1+4+1
	sbc     #$00
	bvs     L001A
	eor     #$80
L001A:	bpl     L0019
	lda     _BoxGuy1+4
	sec
	sbc     #$1E
	sta     _BoxGuy1+4
	bcs     L0020
	dec     _BoxGuy1+4+1
;
; else if(BoxGuy1.vel_x < -ACCEL) BoxGuy1.vel_x += ACCEL;
;
	jmp     L0020
L0019:	lda     _BoxGuy1+4
	cmp     #$E2
	lda     _BoxGuy1+4+1
	sbc     #$FF
	bvc     L001E
	eor     #$80
L001E:	asl     a
	lda     #$00
	tax
	bcc     L0049
	lda     #$1E
	clc
	adc     _BoxGuy1+4
	sta     _BoxGuy1+4
	bcc     L0020
	inc     _BoxGuy1+4+1
;
; else BoxGuy1.vel_x = 0;
;
	jmp     L0020
L0049:	sta     _BoxGuy1+4
	stx     _BoxGuy1+4+1
;
; BoxGuy1.x += BoxGuy1.vel_x;
;
L0020:	lda     _BoxGuy1+4
	clc
	adc     _BoxGuy1
	sta     _BoxGuy1
	lda     _BoxGuy1+4+1
	adc     _BoxGuy1+1
	sta     _BoxGuy1+1
;
; if(BoxGuy1.x > 0xf000) { // too far, don't wrap around
;
	lda     _BoxGuy1
	cmp     #$01
	lda     _BoxGuy1+1
	sbc     #$F0
	bcc     L004C
;
; if(old_x >= 0x8000){
;
	lda     _old_x
	cmp     #$00
	lda     _old_x+1
	sbc     #$80
	lda     #$00
	tax
	bcc     L004B
;
; BoxGuy1.x = 0xf000; // max right
;
	ldx     #$F0
;
; BoxGuy1.x = 0x0000; // max left
;
L004B:	sta     _BoxGuy1
	stx     _BoxGuy1+1
;
; BoxGuy1.vel_x = 0;
;
	sta     _BoxGuy1+4
	sta     _BoxGuy1+4+1
;
; Generic.x = high_byte(BoxGuy1.x); // this is much faster than passing a pointer to BoxGuy1
;
L004C:	lda     _BoxGuy1+1
	sta     _Generic
;
; Generic.y = high_byte(BoxGuy1.y);
;
	lda     _BoxGuy1+3
	sta     _Generic+1
;
; Generic.width = HERO_WIDTH;
;
	lda     #$07
	sta     _Generic+2
;
; Generic.height = HERO_HEIGHT;
;
	sta     _Generic+3
;
; if(BoxGuy1.vel_x < 0){
;
	ldx     _BoxGuy1+4+1
	cpx     #$80
	bcc     L0024
;
; if(bg_coll_L() ){ // check collision left
;
	jsr     _bg_coll_L
	tax
	beq     L002B
;
; high_byte(BoxGuy1.x) = high_byte(BoxGuy1.x) - eject_L;
;
	lda     _BoxGuy1+1
	sec
	sbc     _eject_L
	sta     _BoxGuy1+1
;
; BoxGuy1.vel_x = 0;
;
	lda     #$00
	sta     _BoxGuy1+4
	sta     _BoxGuy1+4+1
;
; if(BoxGuy1.x > 0xf000) {
;
	lda     _BoxGuy1
	cmp     #$01
	lda     _BoxGuy1+1
	sbc     #$F0
	bcc     L002B
;
; BoxGuy1.x = 0xf000;
;
	ldx     #$F0
;
; else if(BoxGuy1.vel_x > 0){
;
	jmp     L0052
L0024:	lda     _BoxGuy1+4
	cmp     #$01
	lda     _BoxGuy1+4+1
	sbc     #$00
	bvs     L0029
	eor     #$80
L0029:	bpl     L002B
;
; if(bg_coll_R() ){ // check collision right
;
	jsr     _bg_coll_R
	tax
	beq     L002B
;
; high_byte(BoxGuy1.x) = high_byte(BoxGuy1.x) - eject_R;
;
	lda     _BoxGuy1+1
	sec
	sbc     _eject_R
	sta     _BoxGuy1+1
;
; BoxGuy1.vel_x = 0;
;
	lda     #$00
	sta     _BoxGuy1+4
	sta     _BoxGuy1+4+1
;
; if(BoxGuy1.x > 0xf000) {
;
	lda     _BoxGuy1
	cmp     #$01
	lda     _BoxGuy1+1
	sbc     #$F0
	bcc     L002B
;
; BoxGuy1.x = 0x0000;
;
	ldx     #$00
L0052:	lda     #$00
	sta     _BoxGuy1
	stx     _BoxGuy1+1
;
; if(BoxGuy1.vel_y < 0x300){
;
L002B:	lda     _BoxGuy1+6
	cmp     #$00
	lda     _BoxGuy1+6+1
	sbc     #$03
	bvc     L002D
	eor     #$80
L002D:	bpl     L002C
;
; BoxGuy1.vel_y += GRAVITY;
;
	lda     #$30
	clc
	adc     _BoxGuy1+6
	sta     _BoxGuy1+6
	bcc     L002F
	inc     _BoxGuy1+6+1
;
; else{
;
	jmp     L002F
;
; BoxGuy1.vel_y = 0x300; // consistent
;
L002C:	ldx     #$03
	lda     #$00
	sta     _BoxGuy1+6
	stx     _BoxGuy1+6+1
;
; BoxGuy1.y += BoxGuy1.vel_y;
;
L002F:	lda     _BoxGuy1+6
	clc
	adc     _BoxGuy1+2
	sta     _BoxGuy1+2
	lda     _BoxGuy1+6+1
	adc     _BoxGuy1+2+1
	sta     _BoxGuy1+2+1
;
; Generic.x = high_byte(BoxGuy1.x);
;
	lda     _BoxGuy1+1
	sta     _Generic
;
; Generic.y = high_byte(BoxGuy1.y);
;
	lda     _BoxGuy1+3
	sta     _Generic+1
;
; if(BoxGuy1.vel_y > 0){
;
	lda     _BoxGuy1+6
	cmp     #$01
	lda     _BoxGuy1+6+1
	sbc     #$00
	bvs     L0031
	eor     #$80
L0031:	bpl     L0030
;
; if(bg_coll_D() ){ // check collision below
;
	jsr     _bg_coll_D
	tax
	beq     L004D
;
; high_byte(BoxGuy1.y) = high_byte(BoxGuy1.y) - eject_D;
;
	lda     _BoxGuy1+3
	sec
	sbc     _eject_D
	sta     _BoxGuy1+3
;
; BoxGuy1.y &= 0xff00;
;
	ldx     _BoxGuy1+2+1
	lda     #$00
	sta     _BoxGuy1+2
	stx     _BoxGuy1+2+1
;
; if(BoxGuy1.vel_y > 0) {
;
	lda     _BoxGuy1+6
	cmp     #$01
	lda     _BoxGuy1+6+1
	sbc     #$00
	bvs     L0034
	eor     #$80
L0034:	bpl     L004D
;
; else if(BoxGuy1.vel_y < 0){
;
	jmp     L0053
L0030:	ldx     _BoxGuy1+6+1
	cpx     #$80
	bcc     L004D
;
; if(bg_coll_U() ){ // check collision above
;
	jsr     _bg_coll_U
	tax
	beq     L004D
;
; high_byte(BoxGuy1.y) = high_byte(BoxGuy1.y) - eject_U;
;
	lda     _BoxGuy1+3
	sec
	sbc     _eject_U
	sta     _BoxGuy1+3
;
; BoxGuy1.vel_y = 0;
;
L0053:	lda     #$00
	sta     _BoxGuy1+6
	sta     _BoxGuy1+6+1
;
; Generic.y = high_byte(BoxGuy1.y); // the rest should be the same
;
L004D:	lda     _BoxGuy1+3
	sta     _Generic+1
;
; if(pad1_new & PAD_DOWN) {
;
	lda     _pad1_new
	and     #$04
	beq     L004E
;
; direction_DANCE = DANCE;
;
	lda     #$03
	sta     _direction_DANCE
;
; if(pad1_new & PAD_A) {
;
L004E:	lda     _pad1_new
	and     #$80
	beq     L003A
;
; if(bg_coll_D2() ) {
;
	jsr     _bg_coll_D2
	tax
	beq     L003A
;
; BoxGuy1.vel_y = JUMP_VEL; // JUMP
;
	ldx     #$FD
	lda     #$00
	sta     _BoxGuy1+6
	stx     _BoxGuy1+6+1
;
; if (bg_coll_D2()) {
;
L003A:	jsr     _bg_coll_D2
	tax
	beq     L003B
;
; can_jump = 1; // 땅에 닿으면 점프 가능 상태로 변경
;
	lda     #$01
	sta     _can_jump
;
; if (can_jump){
;
L003B:	lda     _can_jump
	beq     L003E
;
; if(pad1_new & PAD_B) {
;
	lda     _pad1_new
	and     #$40
	beq     L003E
;
; if(!bg_coll_D() ) {
;
	jsr     _bg_coll_D
	tax
	bne     L003E
;
; if (direction == LEFT) {
;
	lda     _direction
	bne     L003F
;
; BoxGuy1.vel_x = DASH_VEL; // 왼쪽으로 이동
;
	ldx     #$FD
;
; } else {
;
	jmp     L0051
;
; BoxGuy1.vel_x = -DASH_VEL; // 오른쪽으로 이동
;
L003F:	ldx     #$03
	lda     #$00
L0051:	sta     _BoxGuy1+4
	stx     _BoxGuy1+4+1
;
; BoxGuy1.vel_y = DASH_VEL/2; // JUMP
;
	ldx     #$FE
	lda     #$80
	sta     _BoxGuy1+6
	stx     _BoxGuy1+6+1
;
; can_jump = 0;
;
	lda     #$00
	sta     _can_jump
;
; } 
;
L003E:	rts

.endproc

; ---------------------------------------------------------------
; void __near__ movement2 (void)
; ---------------------------------------------------------------

.segment	"CODE"

.proc	_movement2: near

.segment	"CODE"

;
; old_x = BoxGuy2.x;
;
	lda     _BoxGuy2+1
	sta     _old_x+1
	lda     _BoxGuy2
	sta     _old_x
;
; if(pad2 & PAD_LEFT){
;
	lda     _pad2
	and     #$02
	beq     L0046
;
; direction2 = LEFT;
;
	lda     #$00
	sta     _direction2
;
; direction_idle2 = LEFT;
;
	sta     _direction_idle2
;
; direction_DANCE2 = LEFT;
;
	sta     _direction_DANCE2
;
; if(BoxGuy2.vel_x >= DECEL){
;
	lda     _BoxGuy2+4
	cmp     #$64
	lda     _BoxGuy2+4+1
	sbc     #$00
	bvs     L0004
	eor     #$80
L0004:	bpl     L0003
;
; BoxGuy2.vel_x -= DECEL;
;
	lda     _BoxGuy2+4
	sec
	sbc     #$64
	sta     _BoxGuy2+4
	jcs     L0020
	dec     _BoxGuy2+4+1
;
; else if(BoxGuy2.vel_x > 0){
;
	jmp     L0020
L0003:	lda     _BoxGuy2+4
	cmp     #$01
	lda     _BoxGuy2+4+1
	sbc     #$00
	bvs     L0008
	eor     #$80
L0008:	bpl     L0007
;
; BoxGuy2.vel_x = 0;
;
	ldx     #$00
	txa
;
; else {
;
	jmp     L0049
;
; BoxGuy2.vel_x -= ACCEL;
;
L0007:	lda     _BoxGuy2+4
	sec
	sbc     #$1E
	sta     _BoxGuy2+4
	bcs     L000A
	dec     _BoxGuy2+4+1
;
; if(BoxGuy2.vel_x < -MAX_SPEED) BoxGuy2.vel_x = -MAX_SPEED;
;
L000A:	lda     _BoxGuy2+4
	cmp     #$70
	lda     _BoxGuy2+4+1
	sbc     #$FE
	bvc     L000C
	eor     #$80
L000C:	jpl     L0020
	ldx     #$FE
	lda     #$70
;
; else if (pad2 & PAD_RIGHT){
;
	jmp     L0049
L0046:	lda     _pad2
	and     #$01
	beq     L0047
;
; direction2 = RIGHT;
;
	lda     #$01
	sta     _direction2
;
; direction_idle2 = RIGHT;
;
	sta     _direction_idle2
;
; direction_DANCE2 = RIGHT;
;
	sta     _direction_DANCE2
;
; if(BoxGuy2.vel_x <= DECEL){
;
	lda     _BoxGuy2+4
	cmp     #$65
	lda     _BoxGuy2+4+1
	sbc     #$00
	bvc     L0010
	eor     #$80
L0010:	bpl     L000F
;
; BoxGuy2.vel_x += DECEL;
;
	lda     #$64
	clc
	adc     _BoxGuy2+4
	sta     _BoxGuy2+4
	jcc     L0020
	inc     _BoxGuy2+4+1
;
; else if(BoxGuy2.vel_x < 0){
;
	jmp     L0020
L000F:	ldx     _BoxGuy2+4+1
	cpx     #$80
	bcc     L0013
;
; BoxGuy2.vel_x = 0;
;
	ldx     #$00
	txa
;
; else {
;
	jmp     L0049
;
; BoxGuy2.vel_x += ACCEL;
;
L0013:	lda     #$1E
	clc
	adc     _BoxGuy2+4
	sta     _BoxGuy2+4
	bcc     L0015
	inc     _BoxGuy2+4+1
;
; if(BoxGuy2.vel_x >= MAX_SPEED) BoxGuy2.vel_x = MAX_SPEED;
;
L0015:	lda     _BoxGuy2+4
	cmp     #$90
	lda     _BoxGuy2+4+1
	sbc     #$01
	bvs     L0017
	eor     #$80
L0017:	bpl     L0020
	ldx     #$01
	lda     #$90
;
; } else {// 아무것도 누르지 않음
;
	jmp     L0049
;
; direction_idle2 = IDLE;
;
L0047:	lda     #$02
	sta     _direction_idle2
;
; if(BoxGuy2.vel_x >= ACCEL) BoxGuy2.vel_x -= ACCEL;
;
	lda     _BoxGuy2+4
	cmp     #$1E
	lda     _BoxGuy2+4+1
	sbc     #$00
	bvs     L001A
	eor     #$80
L001A:	bpl     L0019
	lda     _BoxGuy2+4
	sec
	sbc     #$1E
	sta     _BoxGuy2+4
	bcs     L0020
	dec     _BoxGuy2+4+1
;
; else if(BoxGuy2.vel_x < -ACCEL) BoxGuy2.vel_x += ACCEL;
;
	jmp     L0020
L0019:	lda     _BoxGuy2+4
	cmp     #$E2
	lda     _BoxGuy2+4+1
	sbc     #$FF
	bvc     L001E
	eor     #$80
L001E:	asl     a
	lda     #$00
	tax
	bcc     L0049
	lda     #$1E
	clc
	adc     _BoxGuy2+4
	sta     _BoxGuy2+4
	bcc     L0020
	inc     _BoxGuy2+4+1
;
; else BoxGuy2.vel_x = 0;
;
	jmp     L0020
L0049:	sta     _BoxGuy2+4
	stx     _BoxGuy2+4+1
;
; BoxGuy2.x += BoxGuy2.vel_x;
;
L0020:	lda     _BoxGuy2+4
	clc
	adc     _BoxGuy2
	sta     _BoxGuy2
	lda     _BoxGuy2+4+1
	adc     _BoxGuy2+1
	sta     _BoxGuy2+1
;
; if(BoxGuy2.x > 0xf000) { 
;
	lda     _BoxGuy2
	cmp     #$01
	lda     _BoxGuy2+1
	sbc     #$F0
	bcc     L004C
;
; if(old_x >= 0x8000){
;
	lda     _old_x
	cmp     #$00
	lda     _old_x+1
	sbc     #$80
	lda     #$00
	tax
	bcc     L004B
;
; BoxGuy2.x = 0xf000;
;
	ldx     #$F0
;
; BoxGuy2.x = 0x0000;
;
L004B:	sta     _BoxGuy2
	stx     _BoxGuy2+1
;
; BoxGuy2.vel_x = 0;
;
	sta     _BoxGuy2+4
	sta     _BoxGuy2+4+1
;
; Generic.x = high_byte(BoxGuy2.x);
;
L004C:	lda     _BoxGuy2+1
	sta     _Generic
;
; Generic.y = high_byte(BoxGuy2.y);
;
	lda     _BoxGuy2+3
	sta     _Generic+1
;
; Generic.width = HERO_WIDTH;
;
	lda     #$07
	sta     _Generic+2
;
; Generic.height = HERO_HEIGHT;
;
	sta     _Generic+3
;
; if(BoxGuy2.vel_x < 0){
;
	ldx     _BoxGuy2+4+1
	cpx     #$80
	bcc     L0024
;
; if(do_bg_coll_L() ){
;
	jsr     _do_bg_coll_L
	tax
	beq     L002B
;
; high_byte(BoxGuy2.x) = high_byte(BoxGuy2.x) - eject_L;
;
	lda     _BoxGuy2+1
	sec
	sbc     _eject_L
	sta     _BoxGuy2+1
;
; BoxGuy2.vel_x = 0;
;
	lda     #$00
	sta     _BoxGuy2+4
	sta     _BoxGuy2+4+1
;
; if(BoxGuy2.x > 0xf000) {
;
	lda     _BoxGuy2
	cmp     #$01
	lda     _BoxGuy2+1
	sbc     #$F0
	bcc     L002B
;
; BoxGuy2.x = 0xf000;
;
	ldx     #$F0
;
; else if(BoxGuy2.vel_x > 0){
;
	jmp     L0052
L0024:	lda     _BoxGuy2+4
	cmp     #$01
	lda     _BoxGuy2+4+1
	sbc     #$00
	bvs     L0029
	eor     #$80
L0029:	bpl     L002B
;
; if(do_bg_coll_R() ){
;
	jsr     _do_bg_coll_R
	tax
	beq     L002B
;
; high_byte(BoxGuy2.x) = high_byte(BoxGuy2.x) - eject_R;
;
	lda     _BoxGuy2+1
	sec
	sbc     _eject_R
	sta     _BoxGuy2+1
;
; BoxGuy2.vel_x = 0;
;
	lda     #$00
	sta     _BoxGuy2+4
	sta     _BoxGuy2+4+1
;
; if(BoxGuy2.x > 0xf000) {
;
	lda     _BoxGuy2
	cmp     #$01
	lda     _BoxGuy2+1
	sbc     #$F0
	bcc     L002B
;
; BoxGuy2.x = 0x0000;
;
	ldx     #$00
L0052:	lda     #$00
	sta     _BoxGuy2
	stx     _BoxGuy2+1
;
; if(BoxGuy2.vel_y < 0x300){
;
L002B:	lda     _BoxGuy2+6
	cmp     #$00
	lda     _BoxGuy2+6+1
	sbc     #$03
	bvc     L002D
	eor     #$80
L002D:	bpl     L002C
;
; BoxGuy2.vel_y += GRAVITY;
;
	lda     #$30
	clc
	adc     _BoxGuy2+6
	sta     _BoxGuy2+6
	bcc     L002F
	inc     _BoxGuy2+6+1
;
; else {
;
	jmp     L002F
;
; BoxGuy2.vel_y = 0x300;
;
L002C:	ldx     #$03
	lda     #$00
	sta     _BoxGuy2+6
	stx     _BoxGuy2+6+1
;
; BoxGuy2.y += BoxGuy2.vel_y;
;
L002F:	lda     _BoxGuy2+6
	clc
	adc     _BoxGuy2+2
	sta     _BoxGuy2+2
	lda     _BoxGuy2+6+1
	adc     _BoxGuy2+2+1
	sta     _BoxGuy2+2+1
;
; Generic.x = high_byte(BoxGuy2.x);
;
	lda     _BoxGuy2+1
	sta     _Generic
;
; Generic.y = high_byte(BoxGuy2.y);
;
	lda     _BoxGuy2+3
	sta     _Generic+1
;
; if(BoxGuy2.vel_y > 0){
;
	lda     _BoxGuy2+6
	cmp     #$01
	lda     _BoxGuy2+6+1
	sbc     #$00
	bvs     L0031
	eor     #$80
L0031:	bpl     L0030
;
; if(do_bg_coll_D() ){
;
	jsr     _do_bg_coll_D
	tax
	beq     L004D
;
; high_byte(BoxGuy2.y) = high_byte(BoxGuy2.y) - eject_D;
;
	lda     _BoxGuy2+3
	sec
	sbc     _eject_D
	sta     _BoxGuy2+3
;
; BoxGuy2.y &= 0xff00;
;
	ldx     _BoxGuy2+2+1
	lda     #$00
	sta     _BoxGuy2+2
	stx     _BoxGuy2+2+1
;
; if(BoxGuy2.vel_y > 0) {
;
	lda     _BoxGuy2+6
	cmp     #$01
	lda     _BoxGuy2+6+1
	sbc     #$00
	bvs     L0034
	eor     #$80
L0034:	bpl     L004D
;
; } else if(BoxGuy2.vel_y < 0){
;
	jmp     L0053
L0030:	ldx     _BoxGuy2+6+1
	cpx     #$80
	bcc     L004D
;
; if(do_bg_coll_U() ){
;
	jsr     _do_bg_coll_U
	tax
	beq     L004D
;
; high_byte(BoxGuy2.y) = high_byte(BoxGuy2.y) - eject_U;
;
	lda     _BoxGuy2+3
	sec
	sbc     _eject_U
	sta     _BoxGuy2+3
;
; BoxGuy2.vel_y = 0;
;
L0053:	lda     #$00
	sta     _BoxGuy2+6
	sta     _BoxGuy2+6+1
;
; Generic.y = high_byte(BoxGuy2.y); // the rest should be the same
;
L004D:	lda     _BoxGuy2+3
	sta     _Generic+1
;
; if(pad2_new & PAD_DOWN) {
;
	lda     _pad2_new
	and     #$04
	beq     L004E
;
; direction_DANCE2 = DANCE;
;
	lda     #$03
	sta     _direction_DANCE2
;
; if(pad2_new & PAD_A) {
;
L004E:	lda     _pad2_new
	and     #$80
	beq     L003A
;
; if(do_bg_coll_D2() ) {
;
	jsr     _do_bg_coll_D2
	tax
	beq     L003A
;
; BoxGuy2.vel_y = JUMP_VEL;
;
	ldx     #$FD
	lda     #$00
	sta     _BoxGuy2+6
	stx     _BoxGuy2+6+1
;
; if (do_bg_coll_D2()) {
;
L003A:	jsr     _do_bg_coll_D2
	tax
	beq     L003B
;
; can_jump2 = 1; // 땅에 닿으면 점프 가능 상태로 변경
;
	lda     #$01
	sta     _can_jump2
;
; if (can_jump2){
;
L003B:	lda     _can_jump2
	beq     L003E
;
; if(pad2_new & PAD_B) {
;
	lda     _pad2_new
	and     #$40
	beq     L003E
;
; if(!do_bg_coll_D() ) {
;
	jsr     _do_bg_coll_D
	tax
	bne     L003E
;
; if (direction2 == LEFT) {
;
	lda     _direction2
	bne     L003F
;
; BoxGuy2.vel_x = DASH_VEL; // 왼쪽으로 이동
;
	ldx     #$FD
;
; } else {
;
	jmp     L0051
;
; BoxGuy2.vel_x = -DASH_VEL; // 오른쪽으로 이동
;
L003F:	ldx     #$03
	lda     #$00
L0051:	sta     _BoxGuy2+4
	stx     _BoxGuy2+4+1
;
; BoxGuy2.vel_y = DASH_VEL/2; // JUMP
;
	ldx     #$FE
	lda     #$80
	sta     _BoxGuy2+6
	stx     _BoxGuy2+6+1
;
; can_jump2 = 0;
;
	lda     #$00
	sta     _can_jump2
;
; }
;
L003E:	rts

.endproc

; ---------------------------------------------------------------
; char __near__ bg_collision_sub (void)
; ---------------------------------------------------------------

.segment	"CODE"

.proc	_bg_collision_sub: near

.segment	"CODE"

;
; if(temp_y >= 0xf0) return 0;
;
	lda     _temp_y
	cmp     #$F0
	ldx     #$00
	bcc     L000D
	txa
	rts
;
; coordinates = (temp_x >> 4) + (temp_y & 0xf0);
;
L000D:	lda     _temp_x
	lsr     a
	lsr     a
	lsr     a
	lsr     a
	sta     ptr1
	lda     _temp_y
	and     #$F0
	clc
	adc     ptr1
	sta     _coordinates
;
; collision = c_map[coordinates];
;
	ldy     _coordinates
	lda     _c_map,y
	sta     _collision
;
; if(collision == 0 || collision == 1 || collision == 2 || collision == 3) {
;
	lda     _collision
	beq     L0014
	cmp     #$01
	beq     L0010
	cmp     #$02
	beq     L0010
	cmp     #$03
	bne     L0011
;
; return 0;
;
L0010:	txa
L0014:	rts
;
; if(collision == 14 || collision == 15) {
;
L0011:	lda     _collision
	cmp     #$0E
	beq     L0012
	cmp     #$0F
	bne     L0013
;
; BoxGuy1.x = 0x1000;
;
L0012:	ldx     #$10
	lda     #$00
	sta     _BoxGuy1
	stx     _BoxGuy1+1
;
; BoxGuy1.y = 0xd000;
;
	ldx     #$D0
	sta     _BoxGuy1+2
	stx     _BoxGuy1+2+1
;
; if(collision == 18) {
;
L0013:	lda     _collision
	cmp     #$12
	bne     L000A
;
; RED_WIN =1;
;
	lda     #$01
	sta     _RED_WIN
;
; return is_solid[collision];;
;
L000A:	ldy     _collision
	ldx     #$00
	lda     _is_solid,y
;
; }
;
	rts

.endproc

; ---------------------------------------------------------------
; char __near__ bg_coll_L (void)
; ---------------------------------------------------------------

.segment	"CODE"

.proc	_bg_coll_L: near

.segment	"CODE"

;
; temp5 = Generic.x + scroll_x;
;
	lda     _Generic
	clc
	adc     _scroll_x
	sta     _temp5
	lda     #$00
	adc     _scroll_x+1
	sta     _temp5+1
;
; temp_x = (char)temp5; // low byte
;
	lda     _temp5
	sta     _temp_x
;
; eject_L = temp_x | 0xf0;
;
	ora     #$F0
	sta     _eject_L
;
; temp_y = Generic.y + 2;
;
	lda     _Generic+1
	clc
	adc     #$02
	sta     _temp_y
;
; if(bg_collision_sub() & COL_ALL) return 1;
;
	jsr     _bg_collision_sub
	and     #$40
	beq     L0006
	ldx     #$00
	lda     #$01
	rts
;
; temp_y = Generic.y + Generic.height;
;
L0006:	lda     _Generic+1
	clc
	adc     _Generic+3
	sta     _temp_y
;
; temp_y -= 2;
;
	sec
	sbc     #$02
	sta     _temp_y
;
; if(bg_collision_sub() & COL_ALL) return 1;
;
	jsr     _bg_collision_sub
	ldx     #$00
	and     #$40
	beq     L0008
	lda     #$01
	rts
;
; }
;
L0008:	rts

.endproc

; ---------------------------------------------------------------
; char __near__ bg_coll_R (void)
; ---------------------------------------------------------------

.segment	"CODE"

.proc	_bg_coll_R: near

.segment	"CODE"

;
; temp5 = Generic.x + scroll_x + Generic.width;
;
	lda     _Generic
	clc
	adc     _scroll_x
	pha
	lda     #$00
	adc     _scroll_x+1
	tax
	pla
	clc
	adc     _Generic+2
	bcc     L0006
	inx
L0006:	sta     _temp5
	stx     _temp5+1
;
; temp_x = (char)temp5; // low byte
;
	lda     _temp5
	sta     _temp_x
;
; eject_R = (temp_x + 1) & 0x0f;
;
	clc
	adc     #$01
	and     #$0F
	sta     _eject_R
;
; temp_y = Generic.y + 2;
;
	lda     _Generic+1
	clc
	adc     #$02
	sta     _temp_y
;
; if(bg_collision_sub() & COL_ALL) return 1;
;
	jsr     _bg_collision_sub
	and     #$40
	beq     L0008
	ldx     #$00
	lda     #$01
	rts
;
; temp_y = Generic.y + Generic.height;
;
L0008:	lda     _Generic+1
	clc
	adc     _Generic+3
	sta     _temp_y
;
; temp_y -= 2;
;
	sec
	sbc     #$02
	sta     _temp_y
;
; if(bg_collision_sub() & COL_ALL) return 1;
;
	jsr     _bg_collision_sub
	ldx     #$00
	and     #$40
	beq     L000A
	lda     #$01
	rts
;
; }
;
L000A:	rts

.endproc

; ---------------------------------------------------------------
; char __near__ bg_coll_U (void)
; ---------------------------------------------------------------

.segment	"CODE"

.proc	_bg_coll_U: near

.segment	"CODE"

;
; temp5 = Generic.x + scroll_x;
;
	lda     _Generic
	clc
	adc     _scroll_x
	sta     _temp5
	lda     #$00
	adc     _scroll_x+1
	sta     _temp5+1
;
; temp5 += 2;
;
	lda     #$02
	clc
	adc     _temp5
	sta     _temp5
	bcc     L0002
	inc     _temp5+1
;
; temp_x = (char)temp5; // low byte
;
L0002:	lda     _temp5
	sta     _temp_x
;
; temp_y = Generic.y;
;
	lda     _Generic+1
	sta     _temp_y
;
; eject_U = temp_y | 0xf0;
;
	ora     #$F0
	sta     _eject_U
;
; if(bg_collision_sub() & COL_ALL) return 1;
;
	jsr     _bg_collision_sub
	and     #$40
	beq     L0007
	ldx     #$00
	lda     #$01
	rts
;
; temp5 = Generic.x + scroll_x + Generic.width;
;
L0007:	lda     _Generic
	clc
	adc     _scroll_x
	pha
	lda     #$00
	adc     _scroll_x+1
	tax
	pla
	clc
	adc     _Generic+2
	bcc     L0006
	inx
L0006:	sta     _temp5
	stx     _temp5+1
;
; temp5 -= 2;
;
	lda     _temp5
	sec
	sbc     #$02
	sta     _temp5
	bcs     L0004
	dec     _temp5+1
;
; temp_x = (char)temp5; // low byte
;
L0004:	lda     _temp5
	sta     _temp_x
;
; if(bg_collision_sub() & COL_ALL) return 1;
;
	jsr     _bg_collision_sub
	ldx     #$00
	and     #$40
	beq     L0009
	lda     #$01
	rts
;
; }
;
L0009:	rts

.endproc

; ---------------------------------------------------------------
; char __near__ bg_coll_D (void)
; ---------------------------------------------------------------

.segment	"CODE"

.proc	_bg_coll_D: near

.segment	"CODE"

;
; temp5 = Generic.x + scroll_x;
;
	lda     _Generic
	clc
	adc     _scroll_x
	sta     _temp5
	lda     #$00
	adc     _scroll_x+1
	sta     _temp5+1
;
; temp5 += 2;
;
	lda     #$02
	clc
	adc     _temp5
	sta     _temp5
	bcc     L0002
	inc     _temp5+1
;
; temp_x = (char)temp5; // low byte
;
L0002:	lda     _temp5
	sta     _temp_x
;
; temp_y = Generic.y + Generic.height;
;
	lda     _Generic+1
	clc
	adc     _Generic+3
	sta     _temp_y
;
; if((temp_y & 0x0f) > 3) return 0; // bug fix
;
	and     #$0F
	cmp     #$04
	lda     #$00
	sbc     #$00
	bvs     L0004
	eor     #$80
L0004:	asl     a
	lda     #$00
	bcc     L000C
	tax
	rts
;
; eject_D = (temp_y + 1) & 0x0f;
;
L000C:	lda     _temp_y
	clc
	adc     #$01
	and     #$0F
	sta     _eject_D
;
; if(bg_collision_sub() ) return 1;
;
	jsr     _bg_collision_sub
	tax
	beq     L000D
	ldx     #$00
	lda     #$01
	rts
;
; temp5 = Generic.x + scroll_x + Generic.width;
;
L000D:	lda     _Generic
	clc
	adc     _scroll_x
	pha
	txa
	adc     _scroll_x+1
	tax
	pla
	clc
	adc     _Generic+2
	bcc     L000A
	inx
L000A:	sta     _temp5
	stx     _temp5+1
;
; temp5 -= 2;
;
	lda     _temp5
	sec
	sbc     #$02
	sta     _temp5
	bcs     L0007
	dec     _temp5+1
;
; temp_x = (char)temp5; // low byte
;
L0007:	lda     _temp5
	sta     _temp_x
;
; if(bg_collision_sub() ) return 1;
;
	jsr     _bg_collision_sub
	tax
	beq     L000E
	ldx     #$00
	lda     #$01
	rts
;
; }
;
L000E:	rts

.endproc

; ---------------------------------------------------------------
; char __near__ bg_coll_D2 (void)
; ---------------------------------------------------------------

.segment	"CODE"

.proc	_bg_coll_D2: near

.segment	"CODE"

;
; temp5 = Generic.x + scroll_x;
;
	lda     _Generic
	clc
	adc     _scroll_x
	sta     _temp5
	lda     #$00
	adc     _scroll_x+1
	sta     _temp5+1
;
; temp5 += 2;
;
	lda     #$02
	clc
	adc     _temp5
	sta     _temp5
	bcc     L0002
	inc     _temp5+1
;
; temp_x = (char)temp5; // low byte
;
L0002:	lda     _temp5
	sta     _temp_x
;
; temp_y = Generic.y + Generic.height;
;
	lda     _Generic+1
	clc
	adc     _Generic+3
	sta     _temp_y
;
; temp_y += 2;
;
	lda     #$02
	clc
	adc     _temp_y
	sta     _temp_y
;
; if(bg_collision_sub() ) return 1;
;
	jsr     _bg_collision_sub
	tax
	beq     L0008
	ldx     #$00
	lda     #$01
	rts
;
; temp5 = Generic.x + scroll_x + Generic.width;
;
L0008:	lda     _Generic
	clc
	adc     _scroll_x
	pha
	txa
	adc     _scroll_x+1
	tax
	pla
	clc
	adc     _Generic+2
	bcc     L0007
	inx
L0007:	sta     _temp5
	stx     _temp5+1
;
; temp5 -= 2;
;
	lda     _temp5
	sec
	sbc     #$02
	sta     _temp5
	bcs     L0004
	dec     _temp5+1
;
; temp_x = (char)temp5; // low byte
;
L0004:	lda     _temp5
	sta     _temp_x
;
; if(bg_collision_sub() ) return 1;
;
	jsr     _bg_collision_sub
	tax
	beq     L000A
	ldx     #$00
	lda     #$01
	rts
;
; }
;
L000A:	rts

.endproc

; ---------------------------------------------------------------
; char __near__ do_bg_coll_L (void)
; ---------------------------------------------------------------

.segment	"CODE"

.proc	_do_bg_coll_L: near

.segment	"CODE"

;
; temp5 = Generic.x + scroll_x;
;
	lda     _Generic
	clc
	adc     _scroll_x
	sta     _temp5
	lda     #$00
	adc     _scroll_x+1
	sta     _temp5+1
;
; temp_x = (char)temp5; // low byte
;
	lda     _temp5
	sta     _temp_x
;
; eject_L = temp_x | 0xf0;
;
	ora     #$F0
	sta     _eject_L
;
; temp_y = Generic.y + 2;
;
	lda     _Generic+1
	clc
	adc     #$02
	sta     _temp_y
;
; if(bg_collision_sub2() & COL_ALL) return 1;
;
	jsr     _bg_collision_sub2
	and     #$40
	beq     L0006
	ldx     #$00
	lda     #$01
	rts
;
; temp_y = Generic.y + Generic.height;
;
L0006:	lda     _Generic+1
	clc
	adc     _Generic+3
	sta     _temp_y
;
; temp_y -= 2;
;
	sec
	sbc     #$02
	sta     _temp_y
;
; if(bg_collision_sub2() & COL_ALL) return 1;
;
	jsr     _bg_collision_sub2
	ldx     #$00
	and     #$40
	beq     L0008
	lda     #$01
	rts
;
; }
;
L0008:	rts

.endproc

; ---------------------------------------------------------------
; char __near__ do_bg_coll_R (void)
; ---------------------------------------------------------------

.segment	"CODE"

.proc	_do_bg_coll_R: near

.segment	"CODE"

;
; temp5 = Generic.x + scroll_x + Generic.width;
;
	lda     _Generic
	clc
	adc     _scroll_x
	pha
	lda     #$00
	adc     _scroll_x+1
	tax
	pla
	clc
	adc     _Generic+2
	bcc     L0006
	inx
L0006:	sta     _temp5
	stx     _temp5+1
;
; temp_x = (char)temp5; // low byte
;
	lda     _temp5
	sta     _temp_x
;
; eject_R = (temp_x + 1) & 0x0f;
;
	clc
	adc     #$01
	and     #$0F
	sta     _eject_R
;
; temp_y = Generic.y + 2;
;
	lda     _Generic+1
	clc
	adc     #$02
	sta     _temp_y
;
; if(bg_collision_sub2() & COL_ALL) return 1;
;
	jsr     _bg_collision_sub2
	and     #$40
	beq     L0008
	ldx     #$00
	lda     #$01
	rts
;
; temp_y = Generic.y + Generic.height;
;
L0008:	lda     _Generic+1
	clc
	adc     _Generic+3
	sta     _temp_y
;
; temp_y -= 2;
;
	sec
	sbc     #$02
	sta     _temp_y
;
; if(bg_collision_sub2() & COL_ALL) return 1;
;
	jsr     _bg_collision_sub2
	ldx     #$00
	and     #$40
	beq     L000A
	lda     #$01
	rts
;
; }
;
L000A:	rts

.endproc

; ---------------------------------------------------------------
; char __near__ do_bg_coll_U (void)
; ---------------------------------------------------------------

.segment	"CODE"

.proc	_do_bg_coll_U: near

.segment	"CODE"

;
; temp5 = Generic.x + scroll_x;
;
	lda     _Generic
	clc
	adc     _scroll_x
	sta     _temp5
	lda     #$00
	adc     _scroll_x+1
	sta     _temp5+1
;
; temp5 += 2;
;
	lda     #$02
	clc
	adc     _temp5
	sta     _temp5
	bcc     L0002
	inc     _temp5+1
;
; temp_x = (char)temp5; // low byte
;
L0002:	lda     _temp5
	sta     _temp_x
;
; temp_y = Generic.y;
;
	lda     _Generic+1
	sta     _temp_y
;
; eject_U = temp_y | 0xf0;
;
	ora     #$F0
	sta     _eject_U
;
; if(bg_collision_sub2() & COL_ALL) return 1;
;
	jsr     _bg_collision_sub2
	and     #$40
	beq     L0007
	ldx     #$00
	lda     #$01
	rts
;
; temp5 = Generic.x + scroll_x + Generic.width;
;
L0007:	lda     _Generic
	clc
	adc     _scroll_x
	pha
	lda     #$00
	adc     _scroll_x+1
	tax
	pla
	clc
	adc     _Generic+2
	bcc     L0006
	inx
L0006:	sta     _temp5
	stx     _temp5+1
;
; temp5 -= 2;
;
	lda     _temp5
	sec
	sbc     #$02
	sta     _temp5
	bcs     L0004
	dec     _temp5+1
;
; temp_x = (char)temp5; // low byte
;
L0004:	lda     _temp5
	sta     _temp_x
;
; if(bg_collision_sub2() & COL_ALL) return 1;
;
	jsr     _bg_collision_sub2
	ldx     #$00
	and     #$40
	beq     L0009
	lda     #$01
	rts
;
; }
;
L0009:	rts

.endproc

; ---------------------------------------------------------------
; char __near__ do_bg_coll_D (void)
; ---------------------------------------------------------------

.segment	"CODE"

.proc	_do_bg_coll_D: near

.segment	"CODE"

;
; temp5 = Generic.x + scroll_x;
;
	lda     _Generic
	clc
	adc     _scroll_x
	sta     _temp5
	lda     #$00
	adc     _scroll_x+1
	sta     _temp5+1
;
; temp5 += 2;
;
	lda     #$02
	clc
	adc     _temp5
	sta     _temp5
	bcc     L0002
	inc     _temp5+1
;
; temp_x = (char)temp5; // low byte
;
L0002:	lda     _temp5
	sta     _temp_x
;
; temp_y = Generic.y + Generic.height;
;
	lda     _Generic+1
	clc
	adc     _Generic+3
	sta     _temp_y
;
; if((temp_y & 0x0f) > 3) return 0; // bug fix
;
	and     #$0F
	cmp     #$04
	lda     #$00
	sbc     #$00
	bvs     L0004
	eor     #$80
L0004:	asl     a
	lda     #$00
	bcc     L000C
	tax
	rts
;
; eject_D = (temp_y + 1) & 0x0f;
;
L000C:	lda     _temp_y
	clc
	adc     #$01
	and     #$0F
	sta     _eject_D
;
; if(bg_collision_sub2() ) return 1;
;
	jsr     _bg_collision_sub2
	tax
	beq     L000D
	ldx     #$00
	lda     #$01
	rts
;
; temp5 = Generic.x + scroll_x + Generic.width;
;
L000D:	lda     _Generic
	clc
	adc     _scroll_x
	pha
	txa
	adc     _scroll_x+1
	tax
	pla
	clc
	adc     _Generic+2
	bcc     L000A
	inx
L000A:	sta     _temp5
	stx     _temp5+1
;
; temp5 -= 2;
;
	lda     _temp5
	sec
	sbc     #$02
	sta     _temp5
	bcs     L0007
	dec     _temp5+1
;
; temp_x = (char)temp5; // low byte
;
L0007:	lda     _temp5
	sta     _temp_x
;
; if(bg_collision_sub2() ) return 1;
;
	jsr     _bg_collision_sub2
	tax
	beq     L000E
	ldx     #$00
	lda     #$01
	rts
;
; }
;
L000E:	rts

.endproc

; ---------------------------------------------------------------
; char __near__ do_bg_coll_D2 (void)
; ---------------------------------------------------------------

.segment	"CODE"

.proc	_do_bg_coll_D2: near

.segment	"CODE"

;
; temp5 = Generic.x + scroll_x;
;
	lda     _Generic
	clc
	adc     _scroll_x
	sta     _temp5
	lda     #$00
	adc     _scroll_x+1
	sta     _temp5+1
;
; temp5 += 2;
;
	lda     #$02
	clc
	adc     _temp5
	sta     _temp5
	bcc     L0002
	inc     _temp5+1
;
; temp_x = (char)temp5; // low byte
;
L0002:	lda     _temp5
	sta     _temp_x
;
; temp_y = Generic.y + Generic.height;
;
	lda     _Generic+1
	clc
	adc     _Generic+3
	sta     _temp_y
;
; temp_y += 2;
;
	lda     #$02
	clc
	adc     _temp_y
	sta     _temp_y
;
; if(bg_collision_sub2() ) return 1;
;
	jsr     _bg_collision_sub2
	tax
	beq     L0008
	ldx     #$00
	lda     #$01
	rts
;
; temp5 = Generic.x + scroll_x + Generic.width;
;
L0008:	lda     _Generic
	clc
	adc     _scroll_x
	pha
	txa
	adc     _scroll_x+1
	tax
	pla
	clc
	adc     _Generic+2
	bcc     L0007
	inx
L0007:	sta     _temp5
	stx     _temp5+1
;
; temp5 -= 2;
;
	lda     _temp5
	sec
	sbc     #$02
	sta     _temp5
	bcs     L0004
	dec     _temp5+1
;
; temp_x = (char)temp5; // low byte
;
L0004:	lda     _temp5
	sta     _temp_x
;
; if(bg_collision_sub2() ) return 1;
;
	jsr     _bg_collision_sub2
	tax
	beq     L000A
	ldx     #$00
	lda     #$01
	rts
;
; }
;
L000A:	rts

.endproc

; ---------------------------------------------------------------
; void __near__ main (void)
; ---------------------------------------------------------------

.segment	"CODE"

.proc	_main: near

.segment	"CODE"

;
; ppu_off(); // screen off
;
	jsr     _ppu_off
;
; pal_bg(palette_bg);
;
	lda     #<(_palette_bg)
	ldx     #>(_palette_bg)
	jsr     _pal_bg
;
; pal_spr(palette_sp);
;
	lda     #<(_palette_sp)
	ldx     #>(_palette_sp)
	jsr     _pal_spr
;
; bank_spr(1);
;
	lda     #$01
	jsr     _bank_spr
;
; set_vram_buffer(); // do at least once, sets a pointer to a buffer
;
	jsr     _set_vram_buffer
;
; load_room();
;
	jsr     _load_room
;
; set_scroll_y(0xff); // shift the bg down 1 pixel
;
	ldx     #$00
	lda     #$FF
	jsr     _set_scroll_y
;
; ppu_on_all(); // turn on screen
;
	jsr     _ppu_on_all
;
; ppu_wait_nmi(); // wait till beginning of the frame
;
L0002:	jsr     _ppu_wait_nmi
;
; pad1 = pad_poll(0); // read the first controller
;
	lda     #$00
	jsr     _pad_poll
	sta     _pad1
;
; pad2 = pad_poll(1); // read the second controller
;
	lda     #$01
	jsr     _pad_poll
	sta     _pad2
;
; pad1_new = get_pad_new(0);
;
	lda     #$00
	jsr     _get_pad_new
	sta     _pad1_new
;
; pad2_new = get_pad_new(1);
;
	lda     #$01
	jsr     _get_pad_new
	sta     _pad2_new
;
; movement();
;
	jsr     _movement
;
; movement2(); // 2P 움직임 처리
;
	jsr     _movement2
;
; draw_sprites();
;
	jsr     _draw_sprites
;
; ++frame_count;
;
	inc     _frame_count
;
; if(frame_count == 24)
;
	lda     _frame_count
	cmp     #$18
	bne     L0007
;
; frame_count = 0;
;
	lda     #$00
	sta     _frame_count
;
; ++frame_count2;
;
L0007:	inc     _frame_count2
;
; if(frame_count2 == 36)
;
	lda     _frame_count2
	cmp     #$24
	bne     L0002
;
; frame_count2 = 0;
;
	lda     #$00
	sta     _frame_count2
;
; while (1){
;
	jmp     L0002

.endproc

; ---------------------------------------------------------------
; char __near__ bg_collision_sub2 (void)
; ---------------------------------------------------------------

.segment	"CODE"

.proc	_bg_collision_sub2: near

.segment	"CODE"

;
; if(temp_y >= 0xf0) return 0;
;
	lda     _temp_y
	cmp     #$F0
	ldx     #$00
	bcc     L000D
	txa
	rts
;
; coordinates = (temp_x >> 4) + (temp_y & 0xf0);
;
L000D:	lda     _temp_x
	lsr     a
	lsr     a
	lsr     a
	lsr     a
	sta     ptr1
	lda     _temp_y
	and     #$F0
	clc
	adc     ptr1
	sta     _coordinates
;
; collision = c_map[coordinates];
;
	ldy     _coordinates
	lda     _c_map,y
	sta     _collision
;
; if(collision == 0 || collision == 1 || collision == 2 || collision == 3) {
;
	lda     _collision
	beq     L0014
	cmp     #$01
	beq     L0010
	cmp     #$02
	beq     L0010
	cmp     #$03
	bne     L0011
;
; return 0;
;
L0010:	txa
L0014:	rts
;
; if(collision == 14 || collision == 15) {
;
L0011:	lda     _collision
	cmp     #$0E
	beq     L0012
	cmp     #$0F
	bne     L0013
;
; BoxGuy2.x = 0x1000;
;
L0012:	ldx     #$10
	lda     #$00
	sta     _BoxGuy2
	stx     _BoxGuy2+1
;
; BoxGuy2.y = 0xd000;
;
	ldx     #$D0
	sta     _BoxGuy2+2
	stx     _BoxGuy2+2+1
;
; if(collision == 18) {
;
L0013:	lda     _collision
	cmp     #$12
	bne     L000A
;
; BLUE_WIN = 1;
;
	lda     #$01
	sta     _BLUE_WIN
;
; return is_solid[collision];;
;
L000A:	ldy     _collision
	ldx     #$00
	lda     _is_solid,y
;
; }
;
	rts

.endproc

